; Function Attrs: mustprogress uwtable
define internal void @_ZL11init_commonPK10gmx_mtop_tiP18gmx_ana_selparam_tPv(ptr nocapture readnone %0, i32 %1, ptr nocapture noundef readonly %2, ptr noundef %3) #0 personality ptr @__gxx_personality_v0 {
  %5 = alloca %"class.gmx::InvalidInputError", align 8
  %6 = alloca %"class.gmx::ExceptionInitializer", align 8
  %7 = alloca %"class.gmx::ExceptionInfo", align 8
  %8 = getelementptr inbounds i8, ptr %2, i64 40
  %9 = load i32, ptr %8, align 8
  %10 = and i32 %9, 1
  %.not = icmp eq i32 %10, 0
  %.pre = load float, ptr %3, align 8
  %11 = fcmp ugt float %.pre, 0.000000e+00
  %or.cond = select i1 %.not, i1 true, i1 %11
  br i1 %or.cond, label %23, label %12

12:                                               ; preds = %4
  %13 = tail call ptr @__cxa_allocate_exception(i64 24) #13
  invoke void @_ZN3gmx20ExceptionInitializerC2EPKc(ptr noundef nonnull align 8 dereferenceable(56) %6, ptr noundef nonnull @.str.4)
          to label %14 unwind label %.thread

14:                                               ; preds = %12
  invoke void @_ZN3gmx16GromacsExceptionC2ERKNS_20ExceptionInitializerE(ptr noundef nonnull align 8 dereferenceable(24) %5, ptr noundef nonnull align 8 dereferenceable(56) %6)
          to label %15 unwind label %.thread17

15:                                               ; preds = %14
  store ptr getelementptr inbounds inrange(-16, 32) ({ [6 x ptr] }, ptr @_ZTVN3gmx17InvalidInputErrorE, i64 0, i32 0, i64 2), ptr %5, align 8
  store ptr getelementptr inbounds inrange(-16, 16) ({ [4 x ptr] }, ptr @_ZTVN3gmx13ExceptionInfoINS_22ExceptionInfoLocation_ENS_13ThrowLocationEEE, i64 0, i32 0, i64 2), ptr %7, align 8
  %16 = getelementptr inbounds i8, ptr %7, i64 8
  store ptr @__PRETTY_FUNCTION__._ZL11init_commonPK10gmx_mtop_tiP18gmx_ana_selparam_tPv, ptr %16, align 8
  %.sroa.2.0..sroa_idx = getelementptr inbounds i8, ptr %7, i64 16
  store ptr @.str.5, ptr %.sroa.2.0..sroa_idx, align 8
  %.sroa.3.0..sroa_idx = getelementptr inbounds i8, ptr %7, i64 24
  store i32 241, ptr %.sroa.3.0..sroa_idx, align 8
  invoke void @_ZN3gmxlsINS_17InvalidInputErrorENS_22ExceptionInfoLocation_ENS_13ThrowLocationEEENSt9enable_ifIXsr3std10is_base_ofINS_16GromacsExceptionET_EE5valueES6_E4typeES6_RKNS_13ExceptionInfoIT0_T1_EE(ptr dead_on_unwind writable sret(%"class.gmx::InvalidInputError") align 8 %13, ptr noundef nonnull %5, ptr noundef nonnull align 8 dereferenceable(32) %7)
          to label %17 unwind label %20

17:                                               ; preds = %15
  invoke void @__cxa_throw(ptr %13, ptr nonnull @_ZTIN3gmx17InvalidInputErrorE, ptr nonnull @_ZN3gmx17InvalidInputErrorD2Ev) #15
          to label %26 unwind label %20

.thread:                                          ; preds = %12
  %18 = landingpad { ptr, i32 }
          cleanup
  br label %22

.thread17:                                        ; preds = %14
  %19 = landingpad { ptr, i32 }
          cleanup
  call void @_ZN3gmx20ExceptionInitializerD2Ev(ptr noundef nonnull align 8 dereferenceable(56) %6) #13
  br label %22

20:                                               ; preds = %15, %17
  %.0 = phi i1 [ false, %17 ], [ true, %15 ]
  %21 = landingpad { ptr, i32 }
          cleanup
  call void @_ZN3gmx8internal14IExceptionInfoD2Ev(ptr noundef nonnull align 8 dereferenceable(8) %7) #13
  call void @_ZN3gmx17InvalidInputErrorD2Ev(ptr noundef nonnull align 8 dereferenceable(24) %5) #13
  call void @_ZN3gmx20ExceptionInitializerD2Ev(ptr noundef nonnull align 8 dereferenceable(56) %6) #13
  br i1 %.0, label %22, label %25

22:                                               ; preds = %.thread17, %.thread, %20
  %.pn.pn16 = phi { ptr, i32 } [ %18, %.thread ], [ %21, %20 ], [ %19, %.thread17 ]
  call void @__cxa_free_exception(ptr %13) #13
  br label %25

23:                                               ; preds = %4
  %24 = getelementptr inbounds i8, ptr %3, i64 160
  tail call void @_ZN3gmx20AnalysisNeighborhood9setCutoffEf(ptr noundef nonnull align 8 dereferenceable(8) %24, float noundef %.pre)
  ret void

25:                                               ; preds = %20, %22
  %.pn.pn15 = phi { ptr, i32 } [ %21, %20 ], [ %.pn.pn16, %22 ]
  resume { ptr, i32 } %.pn.pn15

26:                                               ; preds = %17
  unreachable
}